target datalayout = "e-m:e-p270:32:32-p271:32:32-p272:64:64-i64:64-i128:128-f80:128-n8:16:32:64-S128"
target triple = "x86_64-pc-linux-gnu"

@.str.16 = private unnamed_addr constant [36 x i8] c"FATAL ERROR %s -> in %s @ in %s:%d \00", align 1
@.str.17 = private unnamed_addr constant [22 x i8] c"Should be unreachable\00", align 1
@.str.18 = private unnamed_addr constant [107 x i8] c"generated/home/dtcxzyw/WorkSpace/Projects/compilers/llvm-opt-benchmark/bench/c3c/c3c/src/compiler/target.c\00", align 1
@__func__.arch_pointer_bit_width = private unnamed_addr constant [23 x i8] c"arch_pointer_bit_width\00", align 1

; Function Attrs: nounwind uwtable
define internal i32 @arch_pointer_bit_width(i32 noundef %0, i32 noundef %1) #0 {
  %3 = alloca i32, align 4
  %4 = alloca i32, align 4
  %5 = alloca i32, align 4
  store i32 %0, ptr %4, align 4
  store i32 %1, ptr %5, align 4
  %6 = load i32, ptr %5, align 4
  switch i32 %6, label %20 [
    i32 0, label %7
    i32 5, label %7
    i32 8, label %7
    i32 9, label %7
    i32 25, label %7
    i32 37, label %7
    i32 38, label %7
    i32 39, label %7
    i32 40, label %7
    i32 41, label %7
    i32 44, label %7
    i32 45, label %7
    i32 49, label %7
    i32 50, label %7
    i32 36, label %7
    i32 11, label %7
    i32 12, label %7
    i32 14, label %7
    i32 13, label %7
    i32 7, label %7
    i32 35, label %7
    i32 34, label %7
    i32 15, label %7
    i32 26, label %7
    i32 28, label %7
    i32 27, label %7
    i32 46, label %7
    i32 10, label %7
    i32 20, label %7
    i32 19, label %7
    i32 23, label %7
    i32 24, label %7
    i32 33, label %7
    i32 6, label %7
    i32 43, label %7
    i32 42, label %7
    i32 1, label %8
    i32 2, label %8
    i32 16, label %8
    i32 21, label %8
    i32 29, label %8
    i32 30, label %8
    i32 31, label %8
    i32 47, label %8
    i32 48, label %9
    i32 3, label %9
    i32 4, label %9
    i32 22, label %9
    i32 17, label %10
    i32 18, label %10
    i32 32, label %15
  ]

7:                                                ; preds = %2, %2, %2, %2, %2, %2, %2, %2, %2, %2, %2, %2, %2, %2, %2, %2, %2, %2, %2, %2, %2, %2, %2, %2, %2, %2, %2, %2, %2, %2, %2, %2, %2, %2, %2, %2
  store i32 0, ptr %3, align 4
  br label %23

8:                                                ; preds = %2, %2, %2, %2, %2, %2, %2, %2
  store i32 32, ptr %3, align 4
  br label %23

9:                                                ; preds = %2, %2, %2, %2
  store i32 64, ptr %3, align 4
  br label %23

10:                                               ; preds = %2, %2
  %11 = load i32, ptr %4, align 4
  %12 = icmp eq i32 %11, 10
  br i1 %12, label %13, label %14

13:                                               ; preds = %10
  store i32 32, ptr %3, align 4
  br label %23

14:                                               ; preds = %10
  store i32 64, ptr %3, align 4
  br label %23

15:                                               ; preds = %2
  %16 = load i32, ptr %4, align 4
  %17 = icmp eq i32 %16, 19
  br i1 %17, label %18, label %19

18:                                               ; preds = %15
  store i32 32, ptr %3, align 4
  br label %23

19:                                               ; preds = %15
  store i32 64, ptr %3, align 4
  br label %23

20:                                               ; preds = %2
  br label %21

21:                                               ; preds = %20
  call void (ptr, ...) @error_exit(ptr noundef @.str.16, ptr noundef @.str.17, ptr noundef @__func__.arch_pointer_bit_width, ptr noundef @.str.18, i32 noundef 1297) #7
  unreachable

22:                                               ; No predecessors!
  br label %23

23:                                               ; preds = %22, %19, %18, %14, %13, %9, %8, %7
  %24 = load i32, ptr %3, align 4
  ret i32 %24
}