; Function Attrs: nounwind uwtable
define internal fastcc noundef i32 @arch_pointer_bit_width(i32 noundef %0, i32 noundef %1) unnamed_addr #2 {
  switch i32 %1, label %9 [
    i32 0, label %10
    i32 5, label %10
    i32 8, label %10
    i32 9, label %10
    i32 25, label %10
    i32 37, label %10
    i32 38, label %10
    i32 39, label %10
    i32 40, label %10
    i32 41, label %10
    i32 44, label %10
    i32 45, label %10
    i32 49, label %10
    i32 50, label %10
    i32 36, label %10
    i32 11, label %10
    i32 12, label %10
    i32 14, label %10
    i32 13, label %10
    i32 7, label %10
    i32 35, label %10
    i32 34, label %10
    i32 15, label %10
    i32 26, label %10
    i32 28, label %10
    i32 27, label %10
    i32 46, label %10
    i32 10, label %10
    i32 20, label %10
    i32 19, label %10
    i32 23, label %10
    i32 24, label %10
    i32 33, label %10
    i32 6, label %10
    i32 43, label %10
    i32 42, label %10
    i32 1, label %3
    i32 2, label %3
    i32 16, label %3
    i32 21, label %3
    i32 29, label %3
    i32 30, label %3
    i32 31, label %3
    i32 47, label %3
    i32 48, label %4
    i32 3, label %4
    i32 4, label %4
    i32 22, label %4
    i32 17, label %5
    i32 18, label %5
    i32 32, label %7
  ]

3:                                                ; preds = %2, %2, %2, %2, %2, %2, %2, %2
  br label %10

4:                                                ; preds = %2, %2, %2, %2
  br label %10

5:                                                ; preds = %2, %2
  %6 = icmp eq i32 %0, 10
  %. = select i1 %6, i32 32, i32 64
  br label %10

7:                                                ; preds = %2
  %8 = icmp eq i32 %0, 19
  %.4 = select i1 %8, i32 32, i32 64
  br label %10

9:                                                ; preds = %2
  tail call void (ptr, ...) @error_exit(ptr noundef nonnull @.str.16, ptr noundef nonnull @.str.17, ptr noundef nonnull @__func__.arch_pointer_bit_width, ptr noundef nonnull @.str.18, i32 noundef 1297) #16
  unreachable

10:                                               ; preds = %7, %5, %2, %2, %2, %2, %2, %2, %2, %2, %2, %2, %2, %2, %2, %2, %2, %2, %2, %2, %2, %2, %2, %2, %2, %2, %2, %2, %2, %2, %2, %2, %2, %2, %2, %2, %2, %2, %4, %3
  %.0 = phi i32 [ 64, %4 ], [ 32, %3 ], [ 0, %2 ], [ 0, %2 ], [ 0, %2 ], [ 0, %2 ], [ 0, %2 ], [ 0, %2 ], [ 0, %2 ], [ 0, %2 ], [ 0, %2 ], [ 0, %2 ], [ 0, %2 ], [ 0, %2 ], [ 0, %2 ], [ 0, %2 ], [ 0, %2 ], [ 0, %2 ], [ 0, %2 ], [ 0, %2 ], [ 0, %2 ], [ 0, %2 ], [ 0, %2 ], [ 0, %2 ], [ 0, %2 ], [ 0, %2 ], [ 0, %2 ], [ 0, %2 ], [ 0, %2 ], [ 0, %2 ], [ 0, %2 ], [ 0, %2 ], [ 0, %2 ], [ 0, %2 ], [ 0, %2 ], [ 0, %2 ], [ 0, %2 ], [ 0, %2 ], [ %., %5 ], [ %.4, %7 ]
  ret i32 %.0
}